target datalayout = "e-m:e-p270:32:32-p271:32:32-p272:64:64-i64:64-i128:128-f80:128-n8:16:32:64-S128"
target triple = "x86_64-pc-linux-gnu"

; Function Attrs: inlinehint nounwind uwtable
define internal i32 @pg_popcount64_fast(i64 noundef %0) #1 {
  %2 = alloca i64, align 8
  %3 = alloca i64, align 8
  store i64 %0, ptr %2, align 8
  call void @llvm.lifetime.start.p0(i64 8, ptr %3) #6
  %4 = load i64, ptr %2, align 8
  %5 = call i64 asm sideeffect " popcntq $1,$0\0A", "=q,rm,~{cc},~{dirflag},~{fpsr},~{flags}"(i64 %4) #6, !srcloc !4
  store i64 %5, ptr %3, align 8
  %6 = load i64, ptr %3, align 8
  %7 = trunc i64 %6 to i32
  call void @llvm.lifetime.end.p0(i64 8, ptr %3) #6
  ret i32 %7
}

; Function Attrs: nounwind uwtable
define internal i64 @pg_popcount_masked_fast(ptr noundef %0, i32 noundef %1, i8 noundef zeroext %2) #0 {
  %4 = alloca ptr, align 8
  %5 = alloca i32, align 4
  %6 = alloca i8, align 1
  %7 = alloca i64, align 8
  %8 = alloca i64, align 8
  %9 = alloca ptr, align 8
  store ptr %0, ptr %4, align 8
  store i32 %1, ptr %5, align 4
  store i8 %2, ptr %6, align 1
  call void @llvm.lifetime.start.p0(i64 8, ptr %7) #6
  store i64 0, ptr %7, align 8
  call void @llvm.lifetime.start.p0(i64 8, ptr %8) #6
  %10 = load i8, ptr %6, align 1
  %11 = zext i8 %10 to i64
  %12 = mul i64 72340172838076673, %11
  store i64 %12, ptr %8, align 8
  %13 = load ptr, ptr %4, align 8
  %14 = load ptr, ptr %4, align 8
  %15 = ptrtoint ptr %14 to i64
  %16 = add i64 %15, 7
  %17 = and i64 %16, -8
  %18 = inttoptr i64 %17 to ptr
  %19 = icmp eq ptr %13, %18
  br i1 %19, label %20, label %39

20:                                               ; preds = %3
  call void @llvm.lifetime.start.p0(i64 8, ptr %9) #6
  %21 = load ptr, ptr %4, align 8
  store ptr %21, ptr %9, align 8
  br label %22

22:                                               ; preds = %25, %20
  %23 = load i32, ptr %5, align 4
  %24 = icmp sge i32 %23, 8
  br i1 %24, label %25, label %37

25:                                               ; preds = %22
  %26 = load ptr, ptr %9, align 8
  %27 = getelementptr inbounds nuw i64, ptr %26, i32 1
  store ptr %27, ptr %9, align 8
  %28 = load i64, ptr %26, align 8
  %29 = load i64, ptr %8, align 8
  %30 = and i64 %28, %29
  %31 = call i32 @pg_popcount64_fast(i64 noundef %30)
  %32 = sext i32 %31 to i64
  %33 = load i64, ptr %7, align 8
  %34 = add i64 %33, %32
  store i64 %34, ptr %7, align 8
  %35 = load i32, ptr %5, align 4
  %36 = sub i32 %35, 8
  store i32 %36, ptr %5, align 4
  br label %22, !llvm.loop !8

37:                                               ; preds = %22
  %38 = load ptr, ptr %9, align 8
  store ptr %38, ptr %4, align 8
  call void @llvm.lifetime.end.p0(i64 8, ptr %9) #6
  br label %39

39:                                               ; preds = %37, %3
  br label %40

40:                                               ; preds = %44, %39
  %41 = load i32, ptr %5, align 4
  %42 = add i32 %41, -1
  store i32 %42, ptr %5, align 4
  %43 = icmp ne i32 %41, 0
  br i1 %43, label %44, label %58

44:                                               ; preds = %40
  %45 = load ptr, ptr %4, align 8
  %46 = getelementptr inbounds nuw i8, ptr %45, i32 1
  store ptr %46, ptr %4, align 8
  %47 = load i8, ptr %45, align 1
  %48 = zext i8 %47 to i32
  %49 = load i8, ptr %6, align 1
  %50 = zext i8 %49 to i32
  %51 = and i32 %48, %50
  %52 = sext i32 %51 to i64
  %53 = getelementptr inbounds [256 x i8], ptr @pg_number_of_ones, i64 0, i64 %52
  %54 = load i8, ptr %53, align 1
  %55 = zext i8 %54 to i64
  %56 = load i64, ptr %7, align 8
  %57 = add i64 %56, %55
  store i64 %57, ptr %7, align 8
  br label %40, !llvm.loop !9

58:                                               ; preds = %40
  %59 = load i64, ptr %7, align 8
  call void @llvm.lifetime.end.p0(i64 8, ptr %8) #6
  call void @llvm.lifetime.end.p0(i64 8, ptr %7) #6
  ret i64 %59
}