; Function Attrs: nounwind uwtable
define internal i64 @pg_popcount_masked_fast(ptr noundef %0, i32 noundef %1, i8 noundef zeroext %2) #0 {
  %4 = zext i8 %2 to i64
  %5 = mul nuw i64 %4, 72340172838076673
  %6 = ptrtoint ptr %0 to i64
  %7 = add i64 %6, 7
  %8 = and i64 %7, -8
  %9 = inttoptr i64 %8 to ptr
  %10 = icmp eq ptr %0, %9
  %11 = icmp sgt i32 %1, 7
  %or.cond = and i1 %10, %11
  br i1 %or.cond, label %.lr.ph, label %.loopexit

.lr.ph:                                           ; preds = %3, %.lr.ph
  %.024 = phi ptr [ %12, %.lr.ph ], [ %0, %3 ]
  %.11623 = phi i64 [ %17, %.lr.ph ], [ 0, %3 ]
  %.11822 = phi i32 [ %18, %.lr.ph ], [ %1, %3 ]
  %12 = getelementptr inbounds nuw i8, ptr %.024, i64 8
  %13 = load i64, ptr %.024, align 8
  %14 = and i64 %13, %5
  %15 = tail call i64 asm sideeffect " popcntq $1,$0\0A", "=q,rm,~{cc},~{dirflag},~{fpsr},~{flags}"(i64 %14) #7, !srcloc !8
  %sext = shl i64 %15, 32
  %16 = ashr exact i64 %sext, 32
  %17 = add i64 %16, %.11623
  %18 = add nsw i32 %.11822, -8
  %19 = icmp samesign ugt i32 %.11822, 15
  br i1 %19, label %.lr.ph, label %.loopexit, !llvm.loop !11

.loopexit:                                        ; preds = %.lr.ph, %3
  %.017 = phi i32 [ %1, %3 ], [ %18, %.lr.ph ]
  %.015 = phi i64 [ 0, %3 ], [ %17, %.lr.ph ]
  %.014 = phi ptr [ %0, %3 ], [ %12, %.lr.ph ]
  %.not27 = icmp eq i32 %.017, 0
  br i1 %.not27, label %._crit_edge, label %.lr.ph31

.lr.ph31:                                         ; preds = %.loopexit, %.lr.ph31
  %.130 = phi ptr [ %21, %.lr.ph31 ], [ %.014, %.loopexit ]
  %.229 = phi i64 [ %28, %.lr.ph31 ], [ %.015, %.loopexit ]
  %.21928 = phi i32 [ %20, %.lr.ph31 ], [ %.017, %.loopexit ]
  %20 = add i32 %.21928, -1
  %21 = getelementptr inbounds nuw i8, ptr %.130, i64 1
  %22 = load i8, ptr %.130, align 1
  %23 = and i8 %22, %2
  %24 = zext i8 %23 to i64
  %25 = getelementptr inbounds nuw [256 x i8], ptr @pg_number_of_ones, i64 0, i64 %24
  %26 = load i8, ptr %25, align 1
  %27 = zext i8 %26 to i64
  %28 = add i64 %.229, %27
  %.not = icmp eq i32 %20, 0
  br i1 %.not, label %._crit_edge, label %.lr.ph31, !llvm.loop !12

._crit_edge:                                      ; preds = %.lr.ph31, %.loopexit
  %.2.lcssa = phi i64 [ %.015, %.loopexit ], [ %28, %.lr.ph31 ]
  ret i64 %.2.lcssa
}